target datalayout = "e-m:e-p270:32:32-p271:32:32-p272:64:64-i64:64-i128:128-f80:128-n8:16:32:64-S128"
target triple = "x86_64-pc-linux-gnu"

%"class.cvc5::internal::NodeTemplate" = type { ptr }
%"struct.cvc5::internal::theory::quantifiers::SynthConjectureProcessFun" = type { %"class.cvc5::internal::EnvObj", %"class.cvc5::internal::NodeTemplate", %"class.std::vector", %"class.std::vector.0", %"class.std::unordered_map" }
%"class.cvc5::internal::EnvObj" = type { ptr, ptr }
%"class.std::vector" = type { %"struct.std::_Vector_base" }
%"struct.std::_Vector_base" = type { %"struct.std::_Vector_base<cvc5::internal::theory::quantifiers::SynthConjectureProcessArg, std::allocator<cvc5::internal::theory::quantifiers::SynthConjectureProcessArg>>::_Vector_impl" }
%"struct.std::_Vector_base<cvc5::internal::theory::quantifiers::SynthConjectureProcessArg, std::allocator<cvc5::internal::theory::quantifiers::SynthConjectureProcessArg>>::_Vector_impl" = type { %"struct.std::_Vector_base<cvc5::internal::theory::quantifiers::SynthConjectureProcessArg, std::allocator<cvc5::internal::theory::quantifiers::SynthConjectureProcessArg>>::_Vector_impl_data" }
%"struct.std::_Vector_base<cvc5::internal::theory::quantifiers::SynthConjectureProcessArg, std::allocator<cvc5::internal::theory::quantifiers::SynthConjectureProcessArg>>::_Vector_impl_data" = type { ptr, ptr, ptr }
%"class.std::vector.0" = type { %"struct.std::_Vector_base.1" }
%"struct.std::_Vector_base.1" = type { %"struct.std::_Vector_base<cvc5::internal::NodeTemplate<true>, std::allocator<cvc5::internal::NodeTemplate<true>>>::_Vector_impl" }
%"struct.std::_Vector_base<cvc5::internal::NodeTemplate<true>, std::allocator<cvc5::internal::NodeTemplate<true>>>::_Vector_impl" = type { %"struct.std::_Vector_base<cvc5::internal::NodeTemplate<true>, std::allocator<cvc5::internal::NodeTemplate<true>>>::_Vector_impl_data" }
%"struct.std::_Vector_base<cvc5::internal::NodeTemplate<true>, std::allocator<cvc5::internal::NodeTemplate<true>>>::_Vector_impl_data" = type { ptr, ptr, ptr }
%"class.std::unordered_map" = type { %"class.std::_Hashtable" }
%"class.std::_Hashtable" = type { ptr, i64, %"struct.std::__detail::_Hash_node_base", i64, %"struct.std::__detail::_Prime_rehash_policy", ptr }
%"struct.std::__detail::_Hash_node_base" = type { ptr }
%"struct.std::__detail::_Prime_rehash_policy" = type { float, i64 }
%"class.cvc5::internal::theory::quantifiers::SynthConjectureProcessArg" = type <{ %"class.cvc5::internal::NodeTemplate", i8, i8, [6 x i8] }>

; Function Attrs: mustprogress nounwind uwtable
define linkonce_odr hidden noundef nonnull align 8 dereferenceable(10) ptr @_ZNSt6vectorIN4cvc58internal6theory11quantifiers25SynthConjectureProcessArgESaIS4_EEixEm(ptr noundef nonnull align 8 dereferenceable(24) %0, i64 noundef %1) #5 comdat align 2 {
  %3 = alloca ptr, align 8
  %4 = alloca i64, align 8
  store ptr %0, ptr %3, align 8, !tbaa !17
  store i64 %1, ptr %4, align 8, !tbaa !42
  %5 = load ptr, ptr %3, align 8
  %6 = getelementptr inbounds nuw %"struct.std::_Vector_base", ptr %5, i32 0, i32 0
  %7 = getelementptr inbounds nuw %"struct.std::_Vector_base<cvc5::internal::theory::quantifiers::SynthConjectureProcessArg, std::allocator<cvc5::internal::theory::quantifiers::SynthConjectureProcessArg>>::_Vector_impl_data", ptr %6, i32 0, i32 0
  %8 = load ptr, ptr %7, align 8, !tbaa !123
  %9 = load i64, ptr %4, align 8, !tbaa !42
  %10 = getelementptr inbounds nuw %"class.cvc5::internal::theory::quantifiers::SynthConjectureProcessArg", ptr %8, i64 %9
  ret ptr %10
}

; Function Attrs: mustprogress nounwind uwtable
define hidden noundef zeroext i1 @_ZN4cvc58internal6theory11quantifiers25SynthConjectureProcessFun13isArgRelevantEj(ptr noundef nonnull align 8 dereferenceable(128) %0, i32 noundef %1) #5 align 2 {
  %3 = alloca ptr, align 8
  %4 = alloca i32, align 4
  store ptr %0, ptr %3, align 8, !tbaa !3
  store i32 %1, ptr %4, align 4, !tbaa !23
  %5 = load ptr, ptr %3, align 8
  %6 = getelementptr inbounds nuw %"struct.cvc5::internal::theory::quantifiers::SynthConjectureProcessFun", ptr %5, i32 0, i32 2
  %7 = load i32, ptr %4, align 4, !tbaa !23
  %8 = zext i32 %7 to i64
  %9 = call noundef nonnull align 8 dereferenceable(10) ptr @_ZNSt6vectorIN4cvc58internal6theory11quantifiers25SynthConjectureProcessArgESaIS4_EEixEm(ptr noundef nonnull align 8 dereferenceable(24) %6, i64 noundef %8) #3
  %10 = getelementptr inbounds nuw %"class.cvc5::internal::theory::quantifiers::SynthConjectureProcessArg", ptr %9, i32 0, i32 2
  %11 = load i8, ptr %10, align 1, !tbaa !59, !range !31, !noundef !32
  %12 = trunc i8 %11 to i1
  ret i1 %12
}