; Function Attrs: mustprogress nofree norecurse nosync nounwind willreturn memory(read, inaccessiblemem: none) uwtable
define hidden noundef zeroext i1 @_ZN4cvc58internal6theory11quantifiers25SynthConjectureProcessFun13isArgRelevantEj(ptr noundef nonnull readonly align 8 captures(none) dereferenceable(128) %0, i32 noundef %1) local_unnamed_addr #8 align 2 {
  %3 = getelementptr inbounds nuw i8, ptr %0, i64 24
  %4 = zext i32 %1 to i64
  %5 = load ptr, ptr %3, align 8, !tbaa !158
  %6 = getelementptr inbounds nuw %"class.cvc5::internal::theory::quantifiers::SynthConjectureProcessArg", ptr %5, i64 %4, i32 2
  %7 = load i8, ptr %6, align 1, !tbaa !68, !range !214, !noundef !187
  %8 = trunc nuw i8 %7 to i1
  ret i1 %8
}